; ModuleID = '60/1284.c'
source_filename = "60/1284.c"
target datalayout = "e-m:e-p270:32:32-p271:32:32-p272:64:64-i64:64-f80:128-n8:16:32:64-S128"
target triple = "x86_64-pc-linux-gnu"

@.str = private unnamed_addr constant [3 x i8] c"%d\00", align 1
@.str.1 = private unnamed_addr constant [7 x i8] c"%d %d\0A\00", align 1
@.str.2 = private unnamed_addr constant [7 x i8] c"empty\0A\00", align 1

; Function Attrs: noinline nounwind uwtable
define dso_local i32 @main() #0 {
  %1 = alloca i32, align 4
  %2 = alloca i32, align 4
  %3 = alloca i32, align 4
  %4 = alloca i32, align 4
  %5 = alloca i32, align 4
  %6 = alloca i32, align 4
  %7 = alloca i32, align 4
  %8 = alloca i32, align 4
  store i32 0, i32* %1, align 4
  store i32 0, i32* %5, align 4
  store i32 0, i32* %7, align 4
  store i32 0, i32* %8, align 4
  %9 = call i32 (i8*, ...) @__isoc99_scanf(i8* getelementptr inbounds ([3 x i8], [3 x i8]* @.str, i64 0, i64 0), i32* %2)
  store i32 5, i32* %3, align 4
  br label %10

10:                                               ; preds = %65, %0
  %11 = load i32, i32* %3, align 4
  %12 = load i32, i32* %2, align 4
  %13 = icmp sle i32 %11, %12
  br i1 %13, label %14, label %68

14:                                               ; preds = %10
  store i32 2, i32* %4, align 4
  br label %15

15:                                               ; preds = %28, %14
  %16 = load i32, i32* %4, align 4
  %17 = load i32, i32* %3, align 4
  %18 = icmp slt i32 %16, %17
  br i1 %18, label %19, label %31

19:                                               ; preds = %15
  %20 = load i32, i32* %3, align 4
  %21 = load i32, i32* %4, align 4
  %22 = srem i32 %20, %21
  %23 = icmp eq i32 %22, 0
  br i1 %23, label %24, label %27

24:                                               ; preds = %19
  %25 = load i32, i32* %5, align 4
  %26 = add nsw i32 %25, 1
  store i32 %26, i32* %5, align 4
  br label %27

27:                                               ; preds = %24, %19
  br label %28

28:                                               ; preds = %27
  %29 = load i32, i32* %4, align 4
  %30 = add nsw i32 %29, 1
  store i32 %30, i32* %4, align 4
  br label %15

31:                                               ; preds = %15
  %32 = load i32, i32* %5, align 4
  %33 = icmp eq i32 %32, 0
  br i1 %33, label %34, label %64

34:                                               ; preds = %31
  store i32 2, i32* %6, align 4
  br label %35

35:                                               ; preds = %50, %34
  %36 = load i32, i32* %6, align 4
  %37 = load i32, i32* %3, align 4
  %38 = sub nsw i32 %37, 2
  %39 = icmp slt i32 %36, %38
  br i1 %39, label %40, label %53

40:                                               ; preds = %35
  %41 = load i32, i32* %3, align 4
  %42 = sub nsw i32 %41, 2
  %43 = load i32, i32* %6, align 4
  %44 = srem i32 %42, %43
  %45 = icmp eq i32 %44, 0
  br i1 %45, label %46, label %49

46:                                               ; preds = %40
  %47 = load i32, i32* %7, align 4
  %48 = add nsw i32 %47, 1
  store i32 %48, i32* %7, align 4
  br label %49

49:                                               ; preds = %46, %40
  br label %50

50:                                               ; preds = %49
  %51 = load i32, i32* %6, align 4
  %52 = add nsw i32 %51, 1
  store i32 %52, i32* %6, align 4
  br label %35

53:                                               ; preds = %35
  %54 = load i32, i32* %7, align 4
  %55 = icmp eq i32 %54, 0
  br i1 %55, label %56, label %63

56:                                               ; preds = %53
  %57 = load i32, i32* %8, align 4
  %58 = add nsw i32 %57, 1
  store i32 %58, i32* %8, align 4
  %59 = load i32, i32* %3, align 4
  %60 = sub nsw i32 %59, 2
  %61 = load i32, i32* %3, align 4
  %62 = call i32 (i8*, ...) @printf(i8* getelementptr inbounds ([7 x i8], [7 x i8]* @.str.1, i64 0, i64 0), i32 %60, i32 %61)
  br label %63

63:                                               ; preds = %56, %53
  br label %64

64:                                               ; preds = %63, %31
  store i32 0, i32* %5, align 4
  store i32 0, i32* %7, align 4
  br label %65

65:                                               ; preds = %64
  %66 = load i32, i32* %3, align 4
  %67 = add nsw i32 %66, 1
  store i32 %67, i32* %3, align 4
  br label %10

68:                                               ; preds = %10
  %69 = load i32, i32* %8, align 4
  %70 = icmp eq i32 %69, 0
  br i1 %70, label %71, label %73

71:                                               ; preds = %68
  %72 = call i32 (i8*, ...) @printf(i8* getelementptr inbounds ([7 x i8], [7 x i8]* @.str.2, i64 0, i64 0))
  br label %73

73:                                               ; preds = %71, %68
  ret i32 0
}

declare dso_local i32 @__isoc99_scanf(i8*, ...) #1

declare dso_local i32 @printf(i8*, ...) #1


!llvm.module.flags = !{!0}
!llvm.ident = !{!1}

!0 = !{i32 1, !"wchar_size", i32 4}
!1 = !{!"clang version 10.0.0-4ubuntu1 "}
